target datalayout = "e-m:e-p270:32:32-p271:32:32-p272:64:64-i64:64-i128:128-f80:128-n8:16:32:64-S128"
target triple = "x86_64-pc-linux-gnu"

%struct.PyMemberDef = type { ptr, i32, i64, i32, ptr }

@PyExc_SystemError = external global ptr, align 8
@.str.56 = private unnamed_addr constant [33 x i8] c"type of %s must be Py_T_PYSSIZET\00", align 1
@.str.57 = private unnamed_addr constant [71 x i8] c"flags for %s must be Py_READONLY or (Py_READONLY | Py_RELATIVE_OFFSET)\00", align 1

; Function Attrs: inlinehint nounwind uwtable
define internal i32 @special_offset_from_member(ptr noundef %0, i64 noundef %1, ptr noundef %2) #2 {
  %4 = alloca i32, align 4
  %5 = alloca ptr, align 8
  %6 = alloca i64, align 8
  %7 = alloca ptr, align 8
  store ptr %0, ptr %5, align 8, !tbaa !256
  store i64 %1, ptr %6, align 8, !tbaa !11
  store ptr %2, ptr %7, align 8, !tbaa !299
  %8 = load ptr, ptr %5, align 8, !tbaa !256
  %9 = icmp eq ptr %8, null
  br i1 %9, label %10, label %12

10:                                               ; preds = %3
  %11 = load ptr, ptr %7, align 8, !tbaa !299
  store i64 0, ptr %11, align 8, !tbaa !11
  store i32 0, ptr %4, align 4
  br label %52

12:                                               ; preds = %3
  %13 = load ptr, ptr %5, align 8, !tbaa !256
  %14 = getelementptr inbounds nuw %struct.PyMemberDef, ptr %13, i32 0, i32 1
  %15 = load i32, ptr %14, align 8, !tbaa !301
  %16 = icmp ne i32 %15, 19
  br i1 %16, label %17, label %23

17:                                               ; preds = %12
  %18 = load ptr, ptr @PyExc_SystemError, align 8, !tbaa !97
  %19 = load ptr, ptr %5, align 8, !tbaa !256
  %20 = getelementptr inbounds nuw %struct.PyMemberDef, ptr %19, i32 0, i32 0
  %21 = load ptr, ptr %20, align 8, !tbaa !262
  %22 = call ptr (ptr, ptr, ...) @PyErr_Format(ptr noundef %18, ptr noundef @.str.56, ptr noundef %21)
  store i32 -1, ptr %4, align 4
  br label %52

23:                                               ; preds = %12
  %24 = load ptr, ptr %5, align 8, !tbaa !256
  %25 = getelementptr inbounds nuw %struct.PyMemberDef, ptr %24, i32 0, i32 3
  %26 = load i32, ptr %25, align 8, !tbaa !264
  %27 = icmp eq i32 %26, 1
  br i1 %27, label %28, label %33

28:                                               ; preds = %23
  %29 = load ptr, ptr %5, align 8, !tbaa !256
  %30 = getelementptr inbounds nuw %struct.PyMemberDef, ptr %29, i32 0, i32 2
  %31 = load i64, ptr %30, align 8, !tbaa !266
  %32 = load ptr, ptr %7, align 8, !tbaa !299
  store i64 %31, ptr %32, align 8, !tbaa !11
  store i32 0, ptr %4, align 4
  br label %52

33:                                               ; preds = %23
  %34 = load ptr, ptr %5, align 8, !tbaa !256
  %35 = getelementptr inbounds nuw %struct.PyMemberDef, ptr %34, i32 0, i32 3
  %36 = load i32, ptr %35, align 8, !tbaa !264
  %37 = icmp eq i32 %36, 9
  br i1 %37, label %38, label %45

38:                                               ; preds = %33
  %39 = load ptr, ptr %5, align 8, !tbaa !256
  %40 = getelementptr inbounds nuw %struct.PyMemberDef, ptr %39, i32 0, i32 2
  %41 = load i64, ptr %40, align 8, !tbaa !266
  %42 = load i64, ptr %6, align 8, !tbaa !11
  %43 = add i64 %41, %42
  %44 = load ptr, ptr %7, align 8, !tbaa !299
  store i64 %43, ptr %44, align 8, !tbaa !11
  store i32 0, ptr %4, align 4
  br label %52

45:                                               ; preds = %33
  br label %46

46:                                               ; preds = %45
  %47 = load ptr, ptr @PyExc_SystemError, align 8, !tbaa !97
  %48 = load ptr, ptr %5, align 8, !tbaa !256
  %49 = getelementptr inbounds nuw %struct.PyMemberDef, ptr %48, i32 0, i32 0
  %50 = load ptr, ptr %49, align 8, !tbaa !262
  %51 = call ptr (ptr, ptr, ...) @PyErr_Format(ptr noundef %47, ptr noundef @.str.57, ptr noundef %50)
  store i32 -1, ptr %4, align 4
  br label %52

52:                                               ; preds = %46, %38, %28, %17, %10
  %53 = load i32, ptr %4, align 4
  ret i32 %53
}