; Function Attrs: inlinehint nounwind uwtable
define internal fastcc range(i32 -1, 1) i32 @special_offset_from_member(ptr noundef readonly %0, i64 noundef range(i64 0, -15) %1, ptr noundef nonnull writeonly captures(none) %2) unnamed_addr #16 {
  %4 = icmp eq ptr %0, null
  br i1 %4, label %5, label %6

5:                                                ; preds = %3
  store i64 0, ptr %2, align 8, !tbaa !112
  br label %27

6:                                                ; preds = %3
  %7 = getelementptr inbounds nuw i8, ptr %0, i64 8
  %8 = load i32, ptr %7, align 8, !tbaa !277
  %.not = icmp eq i32 %8, 19
  br i1 %.not, label %13, label %9

9:                                                ; preds = %6
  %10 = load ptr, ptr @PyExc_SystemError, align 8, !tbaa !105
  %11 = load ptr, ptr %0, align 8, !tbaa !247
  %12 = tail call ptr (ptr, ptr, ...) @PyErr_Format(ptr noundef %10, ptr noundef nonnull @.str.56, ptr noundef %11) #24
  br label %27

13:                                               ; preds = %6
  %14 = getelementptr inbounds nuw i8, ptr %0, i64 24
  %15 = load i32, ptr %14, align 8, !tbaa !249
  switch i32 %15, label %23 [
    i32 1, label %16
    i32 9, label %19
  ]

16:                                               ; preds = %13
  %17 = getelementptr inbounds nuw i8, ptr %0, i64 16
  %18 = load i64, ptr %17, align 8, !tbaa !251
  store i64 %18, ptr %2, align 8, !tbaa !112
  br label %27

19:                                               ; preds = %13
  %20 = getelementptr inbounds nuw i8, ptr %0, i64 16
  %21 = load i64, ptr %20, align 8, !tbaa !251
  %22 = add i64 %21, %1
  store i64 %22, ptr %2, align 8, !tbaa !112
  br label %27

23:                                               ; preds = %13
  %24 = load ptr, ptr @PyExc_SystemError, align 8, !tbaa !105
  %25 = load ptr, ptr %0, align 8, !tbaa !247
  %26 = tail call ptr (ptr, ptr, ...) @PyErr_Format(ptr noundef %24, ptr noundef nonnull @.str.57, ptr noundef %25) #24
  br label %27

27:                                               ; preds = %23, %19, %16, %9, %5
  %.0 = phi i32 [ 0, %5 ], [ -1, %9 ], [ 0, %16 ], [ 0, %19 ], [ -1, %23 ]
  ret i32 %.0
}